; Function Attrs: nounwind uwtable
define internal fastcc range(i32 -205, 1) i32 @or_code_range_buf(ptr noundef readonly captures(none) %0, ptr noundef captures(address_is_null) %1, i32 noundef range(i32 0, 2) %2, ptr noundef captures(address_is_null) %3, i32 noundef range(i32 0, 2) %4, ptr noundef nonnull captures(none) initializes((0, 8)) %5) unnamed_addr #2 {
  store ptr null, ptr %5, align 8, !tbaa !113
  %7 = icmp eq ptr %1, null
  %8 = icmp eq ptr %3, null
  %or.cond = and i1 %7, %8
  br i1 %or.cond, label %9, label %17

9:                                                ; preds = %6
  %10 = or i32 %4, %2
  %or.cond3.not = icmp eq i32 %10, 0
  br i1 %or.cond3.not, label %bbuf_clone.exit, label %11

11:                                               ; preds = %9
  %12 = getelementptr inbounds nuw i8, ptr %0, i64 20
  %13 = load i32, ptr %12, align 4, !tbaa !124
  %14 = icmp sgt i32 %13, 1
  %15 = select i1 %14, i32 0, i32 128
  %16 = tail call fastcc i32 @add_code_range_to_buf(ptr noundef nonnull %5, i32 noundef %15, i32 noundef -1)
  br label %bbuf_clone.exit

17:                                               ; preds = %6
  %brmerge = or i1 %8, %7
  %.mux109 = select i1 %8, ptr %1, ptr %3
  %.mux110 = select i1 %8, i32 %2, i32 %4
  br i1 %brmerge, label %.thread, label %48

.thread:                                          ; preds = %17
  %.mux = select i1 %8, i32 %4, i32 %2
  %.not75 = icmp eq i32 %.mux, 0
  br i1 %.not75, label %24, label %18

18:                                               ; preds = %.thread
  %19 = getelementptr inbounds nuw i8, ptr %0, i64 20
  %20 = load i32, ptr %19, align 4, !tbaa !124
  %21 = icmp sgt i32 %20, 1
  %22 = select i1 %21, i32 0, i32 128
  %23 = tail call fastcc i32 @add_code_range_to_buf(ptr noundef nonnull %5, i32 noundef %22, i32 noundef -1)
  br label %bbuf_clone.exit

24:                                               ; preds = %.thread
  %25 = icmp eq i32 %.mux110, 0
  br i1 %25, label %26, label %46

26:                                               ; preds = %24
  %27 = tail call noalias dereferenceable_or_null(16) ptr @malloc(i64 noundef 16) #25
  store ptr %27, ptr %5, align 8, !tbaa !113
  %28 = icmp eq ptr %27, null
  br i1 %28, label %bbuf_clone.exit, label %29

29:                                               ; preds = %26
  %30 = getelementptr inbounds nuw i8, ptr %.mux109, i64 12
  %31 = load i32, ptr %30, align 4, !tbaa !114
  %32 = icmp slt i32 %31, 1
  br i1 %32, label %33, label %34

33:                                               ; preds = %29
  store ptr null, ptr %27, align 8, !tbaa !108
  br label %38

34:                                               ; preds = %29
  %35 = zext nneg i32 %31 to i64
  %36 = tail call noalias ptr @malloc(i64 noundef %35) #25
  store ptr %36, ptr %27, align 8, !tbaa !108
  %37 = icmp eq ptr %36, null
  br i1 %37, label %bbuf_free.exit.i, label %38

bbuf_free.exit.i:                                 ; preds = %34
  tail call void @free(ptr noundef nonnull %27) #24
  store ptr null, ptr %5, align 8, !tbaa !113
  br label %bbuf_clone.exit

38:                                               ; preds = %34, %33
  %39 = phi ptr [ null, %33 ], [ %36, %34 ]
  %.0.i.i = phi i32 [ 0, %33 ], [ %31, %34 ]
  %40 = getelementptr inbounds nuw i8, ptr %27, i64 12
  store i32 %.0.i.i, ptr %40, align 4, !tbaa !114
  %41 = getelementptr inbounds nuw i8, ptr %27, i64 8
  %42 = getelementptr inbounds nuw i8, ptr %.mux109, i64 8
  %43 = load i32, ptr %42, align 8, !tbaa !115
  store i32 %43, ptr %41, align 8, !tbaa !115
  %44 = load ptr, ptr %.mux109, align 8, !tbaa !108
  %45 = zext i32 %43 to i64
  tail call void @llvm.memcpy.p0.p0.i64(ptr align 1 %39, ptr align 1 %44, i64 %45, i1 false)
  br label %bbuf_clone.exit

46:                                               ; preds = %24
  %47 = tail call fastcc i32 @not_code_range_buf(ptr noundef %0, ptr noundef %.mux109, ptr noundef %5)
  br label %bbuf_clone.exit

48:                                               ; preds = %17
  %.not = icmp eq i32 %2, 0
  br i1 %.not, label %49, label %74

49:                                               ; preds = %48
  %50 = load ptr, ptr %1, align 8, !tbaa !108
  %51 = load i32, ptr %50, align 4, !tbaa !8
  %52 = getelementptr inbounds nuw i8, ptr %50, i64 4
  %53 = icmp eq i32 %4, 0
  br i1 %53, label %54, label %bbuf_clone.exit79

54:                                               ; preds = %49
  %55 = tail call noalias dereferenceable_or_null(16) ptr @malloc(i64 noundef 16) #25
  store ptr %55, ptr %5, align 8, !tbaa !113
  %56 = icmp eq ptr %55, null
  br i1 %56, label %bbuf_clone.exit, label %57

57:                                               ; preds = %54
  %58 = getelementptr inbounds nuw i8, ptr %3, i64 12
  %59 = load i32, ptr %58, align 4, !tbaa !114
  %60 = icmp slt i32 %59, 1
  br i1 %60, label %61, label %62

61:                                               ; preds = %57
  store ptr null, ptr %55, align 8, !tbaa !108
  br label %66

62:                                               ; preds = %57
  %63 = zext nneg i32 %59 to i64
  %64 = tail call noalias ptr @malloc(i64 noundef %63) #25
  store ptr %64, ptr %55, align 8, !tbaa !108
  %65 = icmp eq ptr %64, null
  br i1 %65, label %bbuf_free.exit.i78, label %66

bbuf_free.exit.i78:                               ; preds = %62
  tail call void @free(ptr noundef nonnull %55) #24
  store ptr null, ptr %5, align 8, !tbaa !113
  br label %bbuf_clone.exit

66:                                               ; preds = %62, %61
  %67 = phi ptr [ null, %61 ], [ %64, %62 ]
  %.0.i.i76 = phi i32 [ 0, %61 ], [ %59, %62 ]
  %68 = getelementptr inbounds nuw i8, ptr %55, i64 12
  store i32 %.0.i.i76, ptr %68, align 4, !tbaa !114
  %69 = getelementptr inbounds nuw i8, ptr %55, i64 8
  %70 = getelementptr inbounds nuw i8, ptr %3, i64 8
  %71 = load i32, ptr %70, align 8, !tbaa !115
  store i32 %71, ptr %69, align 8, !tbaa !115
  %72 = load ptr, ptr %3, align 8, !tbaa !108
  %73 = zext i32 %71 to i64
  tail call void @llvm.memcpy.p0.p0.i64(ptr align 1 %67, ptr align 1 %72, i64 %73, i1 false)
  br label %.preheader

74:                                               ; preds = %48
  %75 = icmp eq i32 %4, 0
  %76 = load ptr, ptr %3, align 8, !tbaa !108
  %77 = load i32, ptr %76, align 4, !tbaa !8
  %78 = getelementptr inbounds nuw i8, ptr %76, i64 4
  br i1 %75, label %bbuf_clone.exit79, label %.preheader

bbuf_clone.exit79:                                ; preds = %74, %49
  %.1659398 = phi ptr [ %1, %74 ], [ %3, %49 ]
  %79 = phi i32 [ %77, %74 ], [ %51, %49 ]
  %80 = phi ptr [ %78, %74 ], [ %52, %49 ]
  %81 = tail call fastcc i32 @not_code_range_buf(ptr noundef %0, ptr noundef nonnull %.1659398, ptr noundef %5)
  %.not73 = icmp eq i32 %81, 0
  br i1 %.not73, label %.preheader, label %bbuf_clone.exit

.preheader:                                       ; preds = %66, %74, %bbuf_clone.exit79
  %82 = phi i32 [ %79, %bbuf_clone.exit79 ], [ %51, %66 ], [ %77, %74 ]
  %83 = phi ptr [ %80, %bbuf_clone.exit79 ], [ %52, %66 ], [ %78, %74 ]
  %.not104 = icmp eq i32 %82, 0
  br i1 %.not104, label %bbuf_clone.exit, label %.lr.ph.preheader

.lr.ph.preheader:                                 ; preds = %.preheader
  %wide.trip.count = zext i32 %82 to i64
  br label %.lr.ph

84:                                               ; preds = %.lr.ph
  %indvars.iv.next = add nuw nsw i64 %indvars.iv, 1
  %exitcond.not = icmp eq i64 %indvars.iv.next, %wide.trip.count
  br i1 %exitcond.not, label %bbuf_clone.exit, label %.lr.ph, !llvm.loop !288

.lr.ph:                                           ; preds = %.lr.ph.preheader, %84
  %indvars.iv = phi i64 [ 0, %.lr.ph.preheader ], [ %indvars.iv.next, %84 ]
  %85 = trunc nuw i64 %indvars.iv to i32
  %86 = shl i32 %85, 1
  %87 = zext i32 %86 to i64
  %88 = getelementptr inbounds nuw i32, ptr %83, i64 %87
  %89 = load i32, ptr %88, align 4, !tbaa !8
  %90 = or disjoint i32 %86, 1
  %91 = zext i32 %90 to i64
  %92 = getelementptr inbounds nuw i32, ptr %83, i64 %91
  %93 = load i32, ptr %92, align 4, !tbaa !8
  %94 = tail call fastcc i32 @add_code_range_to_buf(ptr noundef nonnull %5, i32 noundef %89, i32 noundef %93)
  %.not74 = icmp eq i32 %94, 0
  br i1 %.not74, label %84, label %bbuf_clone.exit

bbuf_clone.exit:                                  ; preds = %.lr.ph, %84, %.preheader, %54, %bbuf_free.exit.i78, %38, %bbuf_free.exit.i, %26, %bbuf_clone.exit79, %9, %46, %18, %11
  %.0 = phi i32 [ %16, %11 ], [ %23, %18 ], [ %47, %46 ], [ 0, %9 ], [ %81, %bbuf_clone.exit79 ], [ -5, %bbuf_free.exit.i ], [ 0, %38 ], [ -5, %26 ], [ -5, %bbuf_free.exit.i78 ], [ -5, %54 ], [ 0, %.preheader ], [ %94, %.lr.ph ], [ 0, %84 ]
  ret i32 %.0
}